target datalayout = "e-m:e-p270:32:32-p271:32:32-p272:64:64-i64:64-i128:128-f80:128-n8:16:32:64-S128"
target triple = "x86_64-unknown-linux-gnu"

%struct.zlib_data = type { %struct.z_stream_s, ptr, i32, ptr }
%struct.z_stream_s = type { ptr, i32, i64, ptr, i32, i64, ptr, ptr, ptr, ptr, ptr, i32, i64, i64 }
%struct.QemuThread = type { i64 }
%struct.QemuSemaphore = type { %struct.QemuMutex, %struct.QemuCond, i32 }
%struct.QemuCond = type { %union.pthread_cond_t, i8 }
%union.pthread_cond_t = type { %struct.__pthread_cond_s }
%struct.__pthread_cond_s = type { %union.__atomic_wide_counter, %union.__atomic_wide_counter, [2 x i32], [2 x i32], i32, i32, [2 x i32] }
%union.__atomic_wide_counter = type { i64 }
%struct.QemuMutex = type { %union.pthread_mutex_t, i8 }
%union.pthread_mutex_t = type { %struct.__pthread_mutex_s }
%struct.__pthread_mutex_s = type { i32, i32, i32, i32, i32, i16, i16, %struct.__pthread_internal_list }
%struct.__pthread_internal_list = type { ptr, ptr }
%struct.MultiFDRecvParams = type { i8, ptr, %struct.QemuThread, ptr, i32, i32, i32, %struct.QemuSemaphore, %struct.QemuMutex, i8, i8, i32, i64, ptr, i32, i64, ptr, ptr, i64, ptr, ptr, i32, ptr }

@.str.4 = private unnamed_addr constant [33 x i8] c"../qemu/migration/multifd-zlib.c\00", align 1
@__func__.zlib_recv_pages = private unnamed_addr constant [16 x i8] c"zlib_recv_pages\00", align 1
@.str.10 = private unnamed_addr constant [48 x i8] c"multifd %u: flags received %x flags expected %x\00", align 1
@.str.11 = private unnamed_addr constant [45 x i8] c"multifd %u: inflate generated too few output\00", align 1
@.str.12 = private unnamed_addr constant [48 x i8] c"multifd %u: inflate returned %d instead of Z_OK\00", align 1
@.str.13 = private unnamed_addr constant [53 x i8] c"multifd %u: packet size received %u size expected %u\00", align 1

; Function Attrs: nounwind sspstrong uwtable
define internal i32 @zlib_recv_pages(ptr noundef %p, ptr noundef %errp) #0 {
entry:
  %retval = alloca i32, align 4
  %p.addr = alloca ptr, align 8
  %errp.addr = alloca ptr, align 8
  %z = alloca ptr, align 8
  %zs = alloca ptr, align 8
  %in_size = alloca i32, align 4
  %out_size = alloca i32, align 4
  %expected_size = alloca i32, align 4
  %flags = alloca i32, align 4
  %ret = alloca i32, align 4
  %i = alloca i32, align 4
  %flush = alloca i32, align 4
  %start = alloca i64, align 8
  store ptr %p, ptr %p.addr, align 8
  store ptr %errp, ptr %errp.addr, align 8
  %0 = load ptr, ptr %p.addr, align 8
  %data = getelementptr inbounds %struct.MultiFDRecvParams, ptr %0, i32 0, i32 22
  %1 = load ptr, ptr %data, align 8
  store ptr %1, ptr %z, align 8
  %2 = load ptr, ptr %z, align 8
  %zs1 = getelementptr inbounds %struct.zlib_data, ptr %2, i32 0, i32 0
  store ptr %zs1, ptr %zs, align 8
  %3 = load ptr, ptr %p.addr, align 8
  %next_packet_size = getelementptr inbounds %struct.MultiFDRecvParams, ptr %3, i32 0, i32 14
  %4 = load i32, ptr %next_packet_size, align 8
  store i32 %4, ptr %in_size, align 4
  %5 = load ptr, ptr %zs, align 8
  %total_out = getelementptr inbounds %struct.z_stream_s, ptr %5, i32 0, i32 5
  %6 = load i64, ptr %total_out, align 8
  %conv = trunc i64 %6 to i32
  store i32 %conv, ptr %out_size, align 4
  %7 = load ptr, ptr %p.addr, align 8
  %normal_num = getelementptr inbounds %struct.MultiFDRecvParams, ptr %7, i32 0, i32 21
  %8 = load i32, ptr %normal_num, align 8
  %9 = load ptr, ptr %p.addr, align 8
  %page_size = getelementptr inbounds %struct.MultiFDRecvParams, ptr %9, i32 0, i32 5
  %10 = load i32, ptr %page_size, align 4
  %mul = mul i32 %8, %10
  store i32 %mul, ptr %expected_size, align 4
  %11 = load ptr, ptr %p.addr, align 8
  %flags2 = getelementptr inbounds %struct.MultiFDRecvParams, ptr %11, i32 0, i32 11
  %12 = load i32, ptr %flags2, align 4
  %and = and i32 %12, 14
  store i32 %and, ptr %flags, align 4
  %13 = load i32, ptr %flags, align 4
  %cmp = icmp ne i32 %13, 2
  br i1 %cmp, label %if.then, label %if.end

if.then:                                          ; preds = %entry
  %14 = load ptr, ptr %errp.addr, align 8
  %15 = load ptr, ptr %p.addr, align 8
  %id = getelementptr inbounds %struct.MultiFDRecvParams, ptr %15, i32 0, i32 0
  %16 = load i8, ptr %id, align 8
  %conv4 = zext i8 %16 to i32
  %17 = load i32, ptr %flags, align 4
  call void (ptr, ptr, i32, ptr, ptr, ...) @error_setg_internal(ptr noundef %14, ptr noundef @.str.4, i32 noundef 256, ptr noundef @__func__.zlib_recv_pages, ptr noundef @.str.10, i32 noundef %conv4, i32 noundef %17, i32 noundef 2)
  store i32 -1, ptr %retval, align 4
  br label %return

if.end:                                           ; preds = %entry
  %18 = load ptr, ptr %p.addr, align 8
  %c = getelementptr inbounds %struct.MultiFDRecvParams, ptr %18, i32 0, i32 3
  %19 = load ptr, ptr %c, align 8
  %20 = load ptr, ptr %z, align 8
  %zbuff = getelementptr inbounds %struct.zlib_data, ptr %20, i32 0, i32 1
  %21 = load ptr, ptr %zbuff, align 8
  %22 = load i32, ptr %in_size, align 4
  %conv5 = zext i32 %22 to i64
  %23 = load ptr, ptr %errp.addr, align 8
  %call = call i32 @qio_channel_read_all(ptr noundef %19, ptr noundef %21, i64 noundef %conv5, ptr noundef %23)
  store i32 %call, ptr %ret, align 4
  %24 = load i32, ptr %ret, align 4
  %cmp6 = icmp ne i32 %24, 0
  br i1 %cmp6, label %if.then8, label %if.end9

if.then8:                                         ; preds = %if.end
  %25 = load i32, ptr %ret, align 4
  store i32 %25, ptr %retval, align 4
  br label %return

if.end9:                                          ; preds = %if.end
  %26 = load i32, ptr %in_size, align 4
  %27 = load ptr, ptr %zs, align 8
  %avail_in = getelementptr inbounds %struct.z_stream_s, ptr %27, i32 0, i32 1
  store i32 %26, ptr %avail_in, align 8
  %28 = load ptr, ptr %z, align 8
  %zbuff10 = getelementptr inbounds %struct.zlib_data, ptr %28, i32 0, i32 1
  %29 = load ptr, ptr %zbuff10, align 8
  %30 = load ptr, ptr %zs, align 8
  %next_in = getelementptr inbounds %struct.z_stream_s, ptr %30, i32 0, i32 0
  store ptr %29, ptr %next_in, align 8
  store i32 0, ptr %i, align 4
  br label %for.cond

for.cond:                                         ; preds = %for.inc, %if.end9
  %31 = load i32, ptr %i, align 4
  %32 = load ptr, ptr %p.addr, align 8
  %normal_num11 = getelementptr inbounds %struct.MultiFDRecvParams, ptr %32, i32 0, i32 21
  %33 = load i32, ptr %normal_num11, align 8
  %cmp12 = icmp ult i32 %31, %33
  br i1 %cmp12, label %for.body, label %for.end

for.body:                                         ; preds = %for.cond
  store i32 0, ptr %flush, align 4
  %34 = load ptr, ptr %zs, align 8
  %total_out14 = getelementptr inbounds %struct.z_stream_s, ptr %34, i32 0, i32 5
  %35 = load i64, ptr %total_out14, align 8
  store i64 %35, ptr %start, align 8
  %36 = load i32, ptr %i, align 4
  %37 = load ptr, ptr %p.addr, align 8
  %normal_num15 = getelementptr inbounds %struct.MultiFDRecvParams, ptr %37, i32 0, i32 21
  %38 = load i32, ptr %normal_num15, align 8
  %sub = sub i32 %38, 1
  %cmp16 = icmp eq i32 %36, %sub
  br i1 %cmp16, label %if.then18, label %if.end19

if.then18:                                        ; preds = %for.body
  store i32 2, ptr %flush, align 4
  br label %if.end19

if.end19:                                         ; preds = %if.then18, %for.body
  %39 = load ptr, ptr %p.addr, align 8
  %page_size20 = getelementptr inbounds %struct.MultiFDRecvParams, ptr %39, i32 0, i32 5
  %40 = load i32, ptr %page_size20, align 4
  %41 = load ptr, ptr %zs, align 8
  %avail_out = getelementptr inbounds %struct.z_stream_s, ptr %41, i32 0, i32 4
  store i32 %40, ptr %avail_out, align 8
  %42 = load ptr, ptr %p.addr, align 8
  %host = getelementptr inbounds %struct.MultiFDRecvParams, ptr %42, i32 0, i32 17
  %43 = load ptr, ptr %host, align 8
  %44 = load ptr, ptr %p.addr, align 8
  %normal = getelementptr inbounds %struct.MultiFDRecvParams, ptr %44, i32 0, i32 20
  %45 = load ptr, ptr %normal, align 8
  %46 = load i32, ptr %i, align 4
  %idxprom = sext i32 %46 to i64
  %arrayidx = getelementptr i64, ptr %45, i64 %idxprom
  %47 = load i64, ptr %arrayidx, align 8
  %add.ptr = getelementptr i8, ptr %43, i64 %47
  %48 = load ptr, ptr %zs, align 8
  %next_out = getelementptr inbounds %struct.z_stream_s, ptr %48, i32 0, i32 3
  store ptr %add.ptr, ptr %next_out, align 8
  br label %do.body

do.body:                                          ; preds = %land.end, %if.end19
  %49 = load ptr, ptr %zs, align 8
  %50 = load i32, ptr %flush, align 4
  %call21 = call i32 @inflate(ptr noundef %49, i32 noundef %50)
  store i32 %call21, ptr %ret, align 4
  br label %do.cond

do.cond:                                          ; preds = %do.body
  %51 = load i32, ptr %ret, align 4
  %cmp22 = icmp eq i32 %51, 0
  br i1 %cmp22, label %land.lhs.true, label %land.end

land.lhs.true:                                    ; preds = %do.cond
  %52 = load ptr, ptr %zs, align 8
  %avail_in24 = getelementptr inbounds %struct.z_stream_s, ptr %52, i32 0, i32 1
  %53 = load i32, ptr %avail_in24, align 8
  %tobool = icmp ne i32 %53, 0
  br i1 %tobool, label %land.rhs, label %land.end

land.rhs:                                         ; preds = %land.lhs.true
  %54 = load ptr, ptr %zs, align 8
  %total_out25 = getelementptr inbounds %struct.z_stream_s, ptr %54, i32 0, i32 5
  %55 = load i64, ptr %total_out25, align 8
  %56 = load i64, ptr %start, align 8
  %sub26 = sub i64 %55, %56
  %57 = load ptr, ptr %p.addr, align 8
  %page_size27 = getelementptr inbounds %struct.MultiFDRecvParams, ptr %57, i32 0, i32 5
  %58 = load i32, ptr %page_size27, align 4
  %conv28 = zext i32 %58 to i64
  %cmp29 = icmp ult i64 %sub26, %conv28
  br label %land.end

land.end:                                         ; preds = %land.rhs, %land.lhs.true, %do.cond
  %59 = phi i1 [ false, %land.lhs.true ], [ false, %do.cond ], [ %cmp29, %land.rhs ]
  br i1 %59, label %do.body, label %do.end, !llvm.loop !8

do.end:                                           ; preds = %land.end
  %60 = load i32, ptr %ret, align 4
  %cmp31 = icmp eq i32 %60, 0
  br i1 %cmp31, label %land.lhs.true33, label %if.end43

land.lhs.true33:                                  ; preds = %do.end
  %61 = load ptr, ptr %zs, align 8
  %total_out34 = getelementptr inbounds %struct.z_stream_s, ptr %61, i32 0, i32 5
  %62 = load i64, ptr %total_out34, align 8
  %63 = load i64, ptr %start, align 8
  %sub35 = sub i64 %62, %63
  %64 = load ptr, ptr %p.addr, align 8
  %page_size36 = getelementptr inbounds %struct.MultiFDRecvParams, ptr %64, i32 0, i32 5
  %65 = load i32, ptr %page_size36, align 4
  %conv37 = zext i32 %65 to i64
  %cmp38 = icmp ult i64 %sub35, %conv37
  br i1 %cmp38, label %if.then40, label %if.end43

if.then40:                                        ; preds = %land.lhs.true33
  %66 = load ptr, ptr %errp.addr, align 8
  %67 = load ptr, ptr %p.addr, align 8
  %id41 = getelementptr inbounds %struct.MultiFDRecvParams, ptr %67, i32 0, i32 0
  %68 = load i8, ptr %id41, align 8
  %conv42 = zext i8 %68 to i32
  call void (ptr, ptr, i32, ptr, ptr, ...) @error_setg_internal(ptr noundef %66, ptr noundef @.str.4, i32 noundef 293, ptr noundef @__func__.zlib_recv_pages, ptr noundef @.str.11, i32 noundef %conv42)
  store i32 -1, ptr %retval, align 4
  br label %return

if.end43:                                         ; preds = %land.lhs.true33, %do.end
  %69 = load i32, ptr %ret, align 4
  %cmp44 = icmp ne i32 %69, 0
  br i1 %cmp44, label %if.then46, label %if.end49

if.then46:                                        ; preds = %if.end43
  %70 = load ptr, ptr %errp.addr, align 8
  %71 = load ptr, ptr %p.addr, align 8
  %id47 = getelementptr inbounds %struct.MultiFDRecvParams, ptr %71, i32 0, i32 0
  %72 = load i8, ptr %id47, align 8
  %conv48 = zext i8 %72 to i32
  %73 = load i32, ptr %ret, align 4
  call void (ptr, ptr, i32, ptr, ptr, ...) @error_setg_internal(ptr noundef %70, ptr noundef @.str.4, i32 noundef 298, ptr noundef @__func__.zlib_recv_pages, ptr noundef @.str.12, i32 noundef %conv48, i32 noundef %73)
  store i32 -1, ptr %retval, align 4
  br label %return

if.end49:                                         ; preds = %if.end43
  br label %for.inc

for.inc:                                          ; preds = %if.end49
  %74 = load i32, ptr %i, align 4
  %inc = add i32 %74, 1
  store i32 %inc, ptr %i, align 4
  br label %for.cond, !llvm.loop !9

for.end:                                          ; preds = %for.cond
  %75 = load ptr, ptr %zs, align 8
  %total_out50 = getelementptr inbounds %struct.z_stream_s, ptr %75, i32 0, i32 5
  %76 = load i64, ptr %total_out50, align 8
  %77 = load i32, ptr %out_size, align 4
  %conv51 = zext i32 %77 to i64
  %sub52 = sub i64 %76, %conv51
  %conv53 = trunc i64 %sub52 to i32
  store i32 %conv53, ptr %out_size, align 4
  %78 = load i32, ptr %out_size, align 4
  %79 = load i32, ptr %expected_size, align 4
  %cmp54 = icmp ne i32 %78, %79
  br i1 %cmp54, label %if.then56, label %if.end59

if.then56:                                        ; preds = %for.end
  %80 = load ptr, ptr %errp.addr, align 8
  %81 = load ptr, ptr %p.addr, align 8
  %id57 = getelementptr inbounds %struct.MultiFDRecvParams, ptr %81, i32 0, i32 0
  %82 = load i8, ptr %id57, align 8
  %conv58 = zext i8 %82 to i32
  %83 = load i32, ptr %out_size, align 4
  %84 = load i32, ptr %expected_size, align 4
  call void (ptr, ptr, i32, ptr, ptr, ...) @error_setg_internal(ptr noundef %80, ptr noundef @.str.4, i32 noundef 305, ptr noundef @__func__.zlib_recv_pages, ptr noundef @.str.13, i32 noundef %conv58, i32 noundef %83, i32 noundef %84)
  store i32 -1, ptr %retval, align 4
  br label %return

if.end59:                                         ; preds = %for.end
  store i32 0, ptr %retval, align 4
  br label %return

return:                                           ; preds = %if.end59, %if.then56, %if.then46, %if.then40, %if.then8, %if.then
  %85 = load i32, ptr %retval, align 4
  ret i32 %85
}