; Function Attrs: nounwind sspstrong uwtable
define internal i32 @zlib_recv_pages(ptr noundef readonly captures(none) %p, ptr noundef %errp) #0 {
entry:
  %data = getelementptr inbounds nuw i8, ptr %p, i64 296
  %0 = load ptr, ptr %data, align 8
  %next_packet_size = getelementptr inbounds nuw i8, ptr %p, i64 232
  %1 = load i32, ptr %next_packet_size, align 8
  %total_out = getelementptr inbounds nuw i8, ptr %0, i64 40
  %2 = load i64, ptr %total_out, align 8
  %normal_num = getelementptr inbounds nuw i8, ptr %p, i64 288
  %3 = load i32, ptr %normal_num, align 8
  %page_size = getelementptr inbounds nuw i8, ptr %p, i64 36
  %4 = load i32, ptr %page_size, align 4
  %mul = mul i32 %4, %3
  %flags2 = getelementptr inbounds nuw i8, ptr %p, i64 212
  %5 = load i32, ptr %flags2, align 4
  %and = and i32 %5, 14
  %cmp.not = icmp eq i32 %and, 2
  br i1 %cmp.not, label %if.end, label %if.then

if.then:                                          ; preds = %entry
  %6 = load i8, ptr %p, align 8
  %conv4 = zext i8 %6 to i32
  tail call void (ptr, ptr, i32, ptr, ptr, ...) @error_setg_internal(ptr noundef %errp, ptr noundef nonnull @.str.4, i32 noundef 256, ptr noundef nonnull @__func__.zlib_recv_pages, ptr noundef nonnull @.str.10, i32 noundef %conv4, i32 noundef %and, i32 noundef 2) #6
  br label %return

if.end:                                           ; preds = %entry
  %c = getelementptr inbounds nuw i8, ptr %p, i64 24
  %7 = load ptr, ptr %c, align 8
  %zbuff = getelementptr inbounds nuw i8, ptr %0, i64 112
  %8 = load ptr, ptr %zbuff, align 8
  %conv5 = zext i32 %1 to i64
  %call = tail call i32 @qio_channel_read_all(ptr noundef %7, ptr noundef %8, i64 noundef %conv5, ptr noundef %errp) #6
  %cmp6.not = icmp eq i32 %call, 0
  br i1 %cmp6.not, label %if.end9, label %return

if.end9:                                          ; preds = %if.end
  %avail_in = getelementptr inbounds nuw i8, ptr %0, i64 8
  store i32 %1, ptr %avail_in, align 8
  %9 = load ptr, ptr %zbuff, align 8
  store ptr %9, ptr %0, align 8
  %10 = load i32, ptr %normal_num, align 8
  %cmp1248.not = icmp eq i32 %10, 0
  %.pre54 = load i64, ptr %total_out, align 8
  br i1 %cmp1248.not, label %for.end, label %for.body.lr.ph

for.body.lr.ph:                                   ; preds = %if.end9
  %avail_out = getelementptr inbounds nuw i8, ptr %0, i64 32
  %host = getelementptr inbounds nuw i8, ptr %p, i64 256
  %normal = getelementptr inbounds nuw i8, ptr %p, i64 280
  %next_out = getelementptr inbounds nuw i8, ptr %0, i64 24
  %.pre51 = load i32, ptr %page_size, align 4
  br label %for.body

for.cond:                                         ; preds = %land.lhs.true33
  %inc = add nuw i32 %i.049, 1
  %11 = load i32, ptr %normal_num, align 8
  %cmp12 = icmp ult i32 %inc, %11
  br i1 %cmp12, label %for.body, label %for.end, !llvm.loop !8

for.body:                                         ; preds = %for.body.lr.ph, %for.cond
  %12 = phi i32 [ %.pre51, %for.body.lr.ph ], [ %.pre53, %for.cond ]
  %13 = phi i64 [ %.pre54, %for.body.lr.ph ], [ %.pre52, %for.cond ]
  %14 = phi i32 [ %10, %for.body.lr.ph ], [ %11, %for.cond ]
  %i.049 = phi i32 [ 0, %for.body.lr.ph ], [ %inc, %for.cond ]
  %sub = add i32 %14, -1
  %cmp16 = icmp eq i32 %i.049, %sub
  %spec.select = select i1 %cmp16, i32 2, i32 0
  store i32 %12, ptr %avail_out, align 8
  %15 = load ptr, ptr %host, align 8
  %16 = load ptr, ptr %normal, align 8
  %idxprom = sext i32 %i.049 to i64
  %arrayidx = getelementptr i64, ptr %16, i64 %idxprom
  %17 = load i64, ptr %arrayidx, align 8
  %add.ptr = getelementptr i8, ptr %15, i64 %17
  store ptr %add.ptr, ptr %next_out, align 8
  br label %do.body

do.body:                                          ; preds = %land.lhs.true, %for.body
  %call21 = tail call i32 @inflate(ptr noundef nonnull %0, i32 noundef %spec.select) #6
  %cmp22 = icmp eq i32 %call21, 0
  br i1 %cmp22, label %land.lhs.true, label %if.then46

land.lhs.true:                                    ; preds = %do.body
  %18 = load i32, ptr %avail_in, align 8
  %tobool.not = icmp ne i32 %18, 0
  %.pre52 = load i64, ptr %total_out, align 8
  %.pre53 = load i32, ptr %page_size, align 4
  %.pre = sub i64 %.pre52, %13
  %.pre55 = zext i32 %.pre53 to i64
  %cmp29 = icmp ult i64 %.pre, %.pre55
  %or.cond = select i1 %tobool.not, i1 %cmp29, i1 false
  br i1 %or.cond, label %do.body, label %land.lhs.true33, !llvm.loop !9

land.lhs.true33:                                  ; preds = %land.lhs.true
  %cmp38 = icmp ult i64 %.pre, %.pre55
  br i1 %cmp38, label %if.then40, label %for.cond

if.then40:                                        ; preds = %land.lhs.true33
  %19 = load i8, ptr %p, align 8
  %conv42 = zext i8 %19 to i32
  tail call void (ptr, ptr, i32, ptr, ptr, ...) @error_setg_internal(ptr noundef %errp, ptr noundef nonnull @.str.4, i32 noundef 293, ptr noundef nonnull @__func__.zlib_recv_pages, ptr noundef nonnull @.str.11, i32 noundef %conv42) #6
  br label %return

if.then46:                                        ; preds = %do.body
  %20 = load i8, ptr %p, align 8
  %conv48 = zext i8 %20 to i32
  tail call void (ptr, ptr, i32, ptr, ptr, ...) @error_setg_internal(ptr noundef %errp, ptr noundef nonnull @.str.4, i32 noundef 298, ptr noundef nonnull @__func__.zlib_recv_pages, ptr noundef nonnull @.str.12, i32 noundef %conv48, i32 noundef %call21) #6
  br label %return

for.end:                                          ; preds = %for.cond, %if.end9
  %21 = phi i64 [ %.pre54, %if.end9 ], [ %.pre52, %for.cond ]
  %sub52 = sub i64 %21, %2
  %conv53 = trunc i64 %sub52 to i32
  %cmp54.not = icmp eq i32 %mul, %conv53
  br i1 %cmp54.not, label %return, label %if.then56

if.then56:                                        ; preds = %for.end
  %22 = load i8, ptr %p, align 8
  %conv58 = zext i8 %22 to i32
  tail call void (ptr, ptr, i32, ptr, ptr, ...) @error_setg_internal(ptr noundef %errp, ptr noundef nonnull @.str.4, i32 noundef 305, ptr noundef nonnull @__func__.zlib_recv_pages, ptr noundef nonnull @.str.13, i32 noundef %conv58, i32 noundef %conv53, i32 noundef %mul) #6
  br label %return

return:                                           ; preds = %for.end, %if.end, %if.then56, %if.then46, %if.then40, %if.then
  %retval.0 = phi i32 [ -1, %if.then ], [ -1, %if.then40 ], [ -1, %if.then46 ], [ -1, %if.then56 ], [ %call, %if.end ], [ 0, %for.end ]
  ret i32 %retval.0
}